target datalayout = "e-m:e-p270:32:32-p271:32:32-p272:64:64-i64:64-i128:128-f80:128-n8:16:32:64-S128"
target triple = "x86_64-pc-linux-gnu"

%struct.Abc_ZddMan_ = type { i32, i32, i32, i32, i32, i32, ptr, ptr, ptr, ptr, i32, i32, i64, ptr, ptr, ptr }
%struct.Abc_ZddObj_ = type { i32, i32, i32 }

; Function Attrs: inlinehint nounwind uwtable
define internal ptr @Abc_ZddNode(ptr noundef %0, i32 noundef %1) #2 {
  %3 = alloca ptr, align 8
  %4 = alloca i32, align 4
  store ptr %0, ptr %3, align 8, !tbaa !3
  store i32 %1, ptr %4, align 4, !tbaa !10
  %5 = load ptr, ptr %3, align 8, !tbaa !3
  %6 = getelementptr inbounds nuw %struct.Abc_ZddMan_, ptr %5, i32 0, i32 9
  %7 = load ptr, ptr %6, align 8, !tbaa !22
  %8 = load i32, ptr %4, align 4, !tbaa !10
  %9 = sext i32 %8 to i64
  %10 = getelementptr inbounds %struct.Abc_ZddObj_, ptr %7, i64 %9
  ret ptr %10
}

; Function Attrs: nounwind uwtable
define i32 @Abc_ZddCount_rec(ptr noundef %0, i32 noundef %1) #0 {
  %3 = alloca i32, align 4
  %4 = alloca ptr, align 8
  %5 = alloca i32, align 4
  %6 = alloca ptr, align 8
  %7 = alloca i32, align 4
  store ptr %0, ptr %4, align 8, !tbaa !3
  store i32 %1, ptr %5, align 4, !tbaa !10
  call void @llvm.lifetime.start.p0(i64 8, ptr %6) #12
  %8 = load i32, ptr %5, align 4, !tbaa !10
  %9 = icmp slt i32 %8, 2
  br i1 %9, label %10, label %11

10:                                               ; preds = %2
  store i32 0, ptr %3, align 4
  store i32 1, ptr %7, align 4
  br label %37

11:                                               ; preds = %2
  %12 = load ptr, ptr %4, align 8, !tbaa !3
  %13 = load i32, ptr %5, align 4, !tbaa !10
  %14 = call ptr @Abc_ZddNode(ptr noundef %12, i32 noundef %13)
  store ptr %14, ptr %6, align 8, !tbaa !46
  %15 = load ptr, ptr %6, align 8, !tbaa !46
  %16 = load i32, ptr %15, align 4
  %17 = lshr i32 %16, 31
  %18 = icmp ne i32 %17, 0
  br i1 %18, label %19, label %20

19:                                               ; preds = %11
  store i32 0, ptr %3, align 4
  store i32 1, ptr %7, align 4
  br label %37

20:                                               ; preds = %11
  %21 = load ptr, ptr %6, align 8, !tbaa !46
  %22 = load i32, ptr %21, align 4
  %23 = and i32 %22, 2147483647
  %24 = or i32 %23, -2147483648
  store i32 %24, ptr %21, align 4
  %25 = load ptr, ptr %4, align 8, !tbaa !3
  %26 = load ptr, ptr %6, align 8, !tbaa !46
  %27 = getelementptr inbounds nuw %struct.Abc_ZddObj_, ptr %26, i32 0, i32 2
  %28 = load i32, ptr %27, align 4, !tbaa !25
  %29 = call i32 @Abc_ZddCount_rec(ptr noundef %25, i32 noundef %28)
  %30 = add nsw i32 1, %29
  %31 = load ptr, ptr %4, align 8, !tbaa !3
  %32 = load ptr, ptr %6, align 8, !tbaa !46
  %33 = getelementptr inbounds nuw %struct.Abc_ZddObj_, ptr %32, i32 0, i32 1
  %34 = load i32, ptr %33, align 4, !tbaa !23
  %35 = call i32 @Abc_ZddCount_rec(ptr noundef %31, i32 noundef %34)
  %36 = add nsw i32 %30, %35
  store i32 %36, ptr %3, align 4
  store i32 1, ptr %7, align 4
  br label %37

37:                                               ; preds = %20, %19, %10
  call void @llvm.lifetime.end.p0(i64 8, ptr %6) #12
  %38 = load i32, ptr %3, align 4
  ret i32 %38
}