; Function Attrs: nofree nosync nounwind memory(readwrite, inaccessiblemem: none) uwtable
define i32 @Abc_ZddCount_rec(ptr noundef readonly captures(none) %0, i32 noundef %1) local_unnamed_addr #10 {
  %3 = getelementptr i8, ptr %0, i64 48
  %4 = icmp slt i32 %1, 2
  br i1 %4, label %._crit_edge, label %.lr.ph

.lr.ph:                                           ; preds = %2, %tailrecurse
  %.tr1012 = phi i32 [ %13, %tailrecurse ], [ %1, %2 ]
  %accumulator.tr11 = phi i32 [ %15, %tailrecurse ], [ 0, %2 ]
  %.val = load ptr, ptr %3, align 8, !tbaa !18
  %5 = zext nneg i32 %.tr1012 to i64
  %6 = getelementptr inbounds nuw %struct.Abc_ZddObj_, ptr %.val, i64 %5
  %7 = load i32, ptr %6, align 4
  %.not = icmp sgt i32 %7, -1
  br i1 %.not, label %tailrecurse, label %._crit_edge

tailrecurse:                                      ; preds = %.lr.ph
  %8 = or disjoint i32 %7, -2147483648
  store i32 %8, ptr %6, align 4
  %9 = getelementptr inbounds nuw i8, ptr %6, i64 8
  %10 = load i32, ptr %9, align 4, !tbaa !21
  %11 = tail call i32 @Abc_ZddCount_rec(ptr noundef nonnull %0, i32 noundef %10)
  %12 = getelementptr inbounds nuw i8, ptr %6, i64 4
  %13 = load i32, ptr %12, align 4, !tbaa !19
  %14 = add i32 %accumulator.tr11, 1
  %15 = add i32 %14, %11
  %16 = icmp slt i32 %13, 2
  br i1 %16, label %._crit_edge, label %.lr.ph

._crit_edge:                                      ; preds = %tailrecurse, %.lr.ph, %2
  %accumulator.tr.lcssa = phi i32 [ 0, %2 ], [ %accumulator.tr11, %.lr.ph ], [ %15, %tailrecurse ]
  ret i32 %accumulator.tr.lcssa
}